target datalayout = "e-m:e-p270:32:32-p271:32:32-p272:64:64-i64:64-i128:128-f80:128-n8:16:32:64-S128"
target triple = "x86_64-pc-linux-gnu"

%struct._lv_obj_t = type { ptr, ptr, ptr, ptr, ptr, %struct.lv_area_t, i32, i16, i16 }
%struct.lv_area_t = type { i32, i32, i32, i32 }
%struct._lv_menu_page_t = type { %struct._lv_obj_t, ptr, i8 }

@lv_menu_page_class = constant { ptr, ptr, ptr, ptr, ptr, ptr, i32, i32, i8, i8, i8, [5 x i8] } { ptr @lv_obj_class, ptr @lv_menu_page_constructor, ptr @lv_menu_page_destructor, ptr null, ptr null, ptr @.str.1, i32 536871012, i32 1073741823, i8 0, i8 5, i8 0, [5 x i8] zeroinitializer }, align 8

; Function Attrs: nounwind uwtable
define void @lv_menu_set_page_title(ptr noundef %0, ptr noundef %1) #0 {
  %3 = alloca ptr, align 8
  %4 = alloca ptr, align 8
  %5 = alloca ptr, align 8
  %6 = alloca i32, align 4
  store ptr %0, ptr %3, align 8, !tbaa !3
  store ptr %1, ptr %4, align 8, !tbaa !3
  br label %7

7:                                                ; preds = %2
  br label %8

8:                                                ; preds = %7
  call void @llvm.lifetime.start.p0(i64 8, ptr %5) #3
  %9 = load ptr, ptr %3, align 8, !tbaa !3
  store ptr %9, ptr %5, align 8, !tbaa !3
  %10 = load ptr, ptr %5, align 8, !tbaa !3
  %11 = getelementptr inbounds nuw %struct._lv_menu_page_t, ptr %10, i32 0, i32 2
  %12 = load i8, ptr %11, align 8, !tbaa !27, !range !30, !noundef !31
  %13 = trunc i8 %12 to i1
  br i1 %13, label %25, label %14

14:                                               ; preds = %8
  %15 = load ptr, ptr %5, align 8, !tbaa !3
  %16 = getelementptr inbounds nuw %struct._lv_menu_page_t, ptr %15, i32 0, i32 1
  %17 = load ptr, ptr %16, align 8, !tbaa !32
  %18 = icmp ne ptr %17, null
  br i1 %18, label %19, label %25

19:                                               ; preds = %14
  %20 = load ptr, ptr %5, align 8, !tbaa !3
  %21 = getelementptr inbounds nuw %struct._lv_menu_page_t, ptr %20, i32 0, i32 1
  %22 = load ptr, ptr %21, align 8, !tbaa !32
  call void @lv_free(ptr noundef %22)
  %23 = load ptr, ptr %5, align 8, !tbaa !3
  %24 = getelementptr inbounds nuw %struct._lv_menu_page_t, ptr %23, i32 0, i32 1
  store ptr null, ptr %24, align 8, !tbaa !32
  br label %25

25:                                               ; preds = %19, %14, %8
  %26 = load ptr, ptr %4, align 8, !tbaa !3
  %27 = icmp ne ptr %26, null
  br i1 %27, label %28, label %55

28:                                               ; preds = %25
  %29 = load ptr, ptr %5, align 8, !tbaa !3
  %30 = getelementptr inbounds nuw %struct._lv_menu_page_t, ptr %29, i32 0, i32 2
  store i8 0, ptr %30, align 8, !tbaa !27
  %31 = load ptr, ptr %4, align 8, !tbaa !3
  %32 = call ptr @lv_strdup(ptr noundef %31)
  %33 = load ptr, ptr %5, align 8, !tbaa !3
  %34 = getelementptr inbounds nuw %struct._lv_menu_page_t, ptr %33, i32 0, i32 1
  store ptr %32, ptr %34, align 8, !tbaa !32
  br label %35

35:                                               ; preds = %28
  %36 = load ptr, ptr %5, align 8, !tbaa !3
  %37 = getelementptr inbounds nuw %struct._lv_menu_page_t, ptr %36, i32 0, i32 1
  %38 = load ptr, ptr %37, align 8, !tbaa !32
  %39 = icmp ne ptr %38, null
  br i1 %39, label %46, label %40

40:                                               ; preds = %35
  br label %41

41:                                               ; preds = %40
  br label %42

42:                                               ; preds = %41
  br label %43

43:                                               ; preds = %42
  br label %44

44:                                               ; preds = %45, %43
  br label %45

45:                                               ; preds = %44
  br label %44

46:                                               ; preds = %35
  br label %47

47:                                               ; preds = %46
  br label %48

48:                                               ; preds = %47
  %49 = load ptr, ptr %5, align 8, !tbaa !3
  %50 = getelementptr inbounds nuw %struct._lv_menu_page_t, ptr %49, i32 0, i32 1
  %51 = load ptr, ptr %50, align 8, !tbaa !32
  %52 = icmp eq ptr %51, null
  br i1 %52, label %53, label %54

53:                                               ; preds = %48
  store i32 1, ptr %6, align 4
  br label %61

54:                                               ; preds = %48
  br label %60

55:                                               ; preds = %25
  %56 = load ptr, ptr %5, align 8, !tbaa !3
  %57 = getelementptr inbounds nuw %struct._lv_menu_page_t, ptr %56, i32 0, i32 1
  store ptr null, ptr %57, align 8, !tbaa !32
  %58 = load ptr, ptr %5, align 8, !tbaa !3
  %59 = getelementptr inbounds nuw %struct._lv_menu_page_t, ptr %58, i32 0, i32 2
  store i8 0, ptr %59, align 8, !tbaa !27
  br label %60

60:                                               ; preds = %55, %54
  store i32 0, ptr %6, align 4
  br label %61

61:                                               ; preds = %60, %53
  call void @llvm.lifetime.end.p0(i64 8, ptr %5) #3
  %62 = load i32, ptr %6, align 4
  switch i32 %62, label %64 [
    i32 0, label %63
    i32 1, label %63
  ]

63:                                               ; preds = %61, %61
  ret void

64:                                               ; preds = %61
  unreachable
}

; Function Attrs: nounwind uwtable
define ptr @lv_menu_page_create(ptr noundef %0, ptr noundef %1) #0 {
  %3 = alloca ptr, align 8
  %4 = alloca ptr, align 8
  %5 = alloca ptr, align 8
  %6 = alloca ptr, align 8
  store ptr %0, ptr %3, align 8, !tbaa !3
  store ptr %1, ptr %4, align 8, !tbaa !3
  br label %7

7:                                                ; preds = %2
  br label %8

8:                                                ; preds = %7
  call void @llvm.lifetime.start.p0(i64 8, ptr %5) #3
  %9 = load ptr, ptr %3, align 8, !tbaa !3
  %10 = call ptr @lv_obj_class_create_obj(ptr noundef @lv_menu_page_class, ptr noundef %9)
  store ptr %10, ptr %5, align 8, !tbaa !3
  %11 = load ptr, ptr %5, align 8, !tbaa !3
  call void @lv_obj_class_init_obj(ptr noundef %11)
  call void @llvm.lifetime.start.p0(i64 8, ptr %6) #3
  %12 = load ptr, ptr %5, align 8, !tbaa !3
  store ptr %12, ptr %6, align 8, !tbaa !3
  %13 = load ptr, ptr %6, align 8, !tbaa !3
  %14 = getelementptr inbounds nuw %struct._lv_menu_page_t, ptr %13, i32 0, i32 1
  store ptr null, ptr %14, align 8, !tbaa !32
  %15 = load ptr, ptr %6, align 8, !tbaa !3
  %16 = getelementptr inbounds nuw %struct._lv_menu_page_t, ptr %15, i32 0, i32 2
  store i8 0, ptr %16, align 8, !tbaa !27
  %17 = load ptr, ptr %5, align 8, !tbaa !3
  %18 = load ptr, ptr %4, align 8, !tbaa !3
  call void @lv_menu_set_page_title(ptr noundef %17, ptr noundef %18)
  %19 = load ptr, ptr %5, align 8, !tbaa !3
  call void @llvm.lifetime.end.p0(i64 8, ptr %6) #3
  call void @llvm.lifetime.end.p0(i64 8, ptr %5) #3
  ret ptr %19
}