; Function Attrs: nounwind uwtable
define noundef ptr @lv_menu_page_create(ptr noundef %0, ptr noundef %1) local_unnamed_addr #0 {
  %3 = tail call ptr @lv_obj_class_create_obj(ptr noundef nonnull @lv_menu_page_class, ptr noundef %0) #4
  tail call void @lv_obj_class_init_obj(ptr noundef %3) #4
  %4 = getelementptr inbounds nuw i8, ptr %3, i64 64
  store ptr null, ptr %4, align 8, !tbaa !26
  %5 = getelementptr inbounds nuw i8, ptr %3, i64 72
  %.not14.i = icmp eq ptr %1, null
  store i8 0, ptr %5, align 8, !tbaa !21
  br i1 %.not14.i, label %lv_menu_set_page_title.exit, label %6

6:                                                ; preds = %2
  %7 = tail call ptr @lv_strdup(ptr noundef nonnull %1) #4
  store ptr %7, ptr %4, align 8, !tbaa !26
  %.not15.i = icmp eq ptr %7, null
  br i1 %.not15.i, label %.preheader.i, label %lv_menu_set_page_title.exit

.preheader.i:                                     ; preds = %6, %.preheader.i
  br label %.preheader.i

lv_menu_set_page_title.exit:                      ; preds = %2, %6
  ret ptr %3
}